LIBRARY libmgl-qt5.dll
EXPORTS
    _Z10mgl_ask_qtPKwPw    @1
    _Z11mglMakeMenuP11QMainWindowP7QMathGLRP8QSpinBoxS5_    @2
    _ZN7QMathGL10addEllipseEv    @3
    _ZN7QMathGL10addPolygonEi    @4
    _ZN7QMathGL10customDrawEddddb    @5
    _ZN7QMathGL10customZoomEddddddd    @6
    _ZN7QMathGL10exportMGLDE7QString    @7
    _ZN7QMathGL10exportPNGsE7QString    @8
    _ZN7QMathGL10mouseClickEddd    @9
    _ZN7QMathGL10objChangedEi    @10
    _ZN7QMathGL10paintEventEP11QPaintEvent    @11
    _ZN7QMathGL10perChangedEi    @12
    _ZN7QMathGL10phiChangedEi    @13
    _ZN7QMathGL10posChangedE7QString    @14
    _ZN7QMathGL10setMGLFontE7QString    @15
    _ZN7QMathGL10setZoomSclEd    @16
    _ZN7QMathGL10shiftRightEv    @17
    _ZN7QMathGL10tetChangedEi    @18
    _ZN7QMathGL10wheelEventEP11QWheelEvent    @19
    _ZN7QMathGL11doubleClickEi    @20
    _ZN7QMathGL11gridChangedEi    @21
    _ZN7QMathGL11qt_metacallEN11QMetaObject4CallEiPPv    @22
    _ZN7QMathGL11qt_metacastEPKc    @23
    _ZN7QMathGL11refreshDataEv    @24
    _ZN7QMathGL11resizeEventEP12QResizeEvent    @25
    _ZN7QMathGL11setCustDrawEb    @26
    _ZN7QMathGL11setCustZoomEb    @27
    _ZN7QMathGL11setShiftSclEd    @28
    _ZN7QMathGL11zoomChangedEb    @29
    _ZN7QMathGL12alphaChangedEb    @30
    _ZN7QMathGL12frameChangedEi    @31
    _ZN7QMathGL12lightChangedEb    @32
    _ZN7QMathGL12pauseChangedEb    @33
    _ZN7QMathGL13copyClickCoorEv    @34
    _ZN7QMathGL13rotateChangedEb    @35
    _ZN7QMathGL13viewYZChangedEb    @36
    _ZN7QMathGL14mouseMoveEventEP11QMouseEvent    @37
    _ZN7QMathGL14setDotsPreviewEb    @38
    _ZN7QMathGL14usePrimChangedEb    @39
    _ZN7QMathGL15mousePressEventEP11QMouseEvent    @40
    _ZN7QMathGL16staticMetaObjectE    @41
    _ZN7QMathGL17mouseReleaseEventEP11QMouseEvent    @42
    _ZN7QMathGL18qt_static_metacallEP7QObjectN11QMetaObject4CallEiPPv    @43
    _ZN7QMathGL21mouseDoubleClickEventEP11QMouseEvent    @44
    _ZN7QMathGL4copyEv    @45
    _ZN7QMathGL4stopEv    @46
    _ZN7QMathGL5aboutEv    @47
    _ZN7QMathGL5printEv    @48
    _ZN7QMathGL6addArcEv    @49
    _ZN7QMathGL6adjustEv    @50
    _ZN7QMathGL6setPerEi    @51
    _ZN7QMathGL6setPhiEi    @52
    _ZN7QMathGL6setTetEi    @53
    _ZN7QMathGL6updateEv    @54
    _ZN7QMathGL6zoomInEv    @55
    _ZN7QMathGL7aboutQtEv    @56
    _ZN7QMathGL7addLineEv    @57
    _ZN7QMathGL7addMarkEv    @58
    _ZN7QMathGL7addRectEv    @59
    _ZN7QMathGL7addTextE7QString    @60
    _ZN7QMathGL7imgSizeEii    @61
    _ZN7QMathGL7refreshEv    @62
    _ZN7QMathGL7restoreEv    @63
    _ZN7QMathGL7setDrawEP7mglDraw    @64
    _ZN7QMathGL7setDrawEPFiP7mglBasePvES2_    @65
    _ZN7QMathGL7setGridEb    @66
    _ZN7QMathGL7setSizeEii    @67
    _ZN7QMathGL7setZoomEb    @68
    _ZN7QMathGL7shiftUpEv    @69
    _ZN7QMathGL7zoomOutEv    @70
    _ZN7QMathGL8addCurveEv    @71
    _ZN7QMathGL8addRhombEv    @72
    _ZN7QMathGL8askStyleEi    @73
    _ZN7QMathGL8drawPrimEv    @74
    _ZN7QMathGL8getRatioEv    @75
    _ZN7QMathGL8setAlphaEb    @76
    _ZN7QMathGL8setGraphEP7mglBase    @77
    _ZN7QMathGL8setLightEb    @78
    _ZN7QMathGL8setPauseEb    @79
    _ZN7QMathGL8setStyleEi7QString    @80
    _ZN7QMathGL8showWarnE7QString    @81
    _ZN7QMathGL9afterPlotEv    @82
    _ZN7QMathGL9animationEb    @83
    _ZN7QMathGL9exportBPSE7QString    @84
    _ZN7QMathGL9exportEPSE7QString    @85
    _ZN7QMathGL9exportGIFE7QString    @86
    _ZN7QMathGL9exportJPGE7QString    @87
    _ZN7QMathGL9exportOBJE7QString    @88
    _ZN7QMathGL9exportOFFE7QString    @89
    _ZN7QMathGL9exportPNGE7QString    @90
    _ZN7QMathGL9exportPRCE7QString    @91
    _ZN7QMathGL9exportSTLE7QString    @92
    _ZN7QMathGL9exportSVGE7QString    @93
    _ZN7QMathGL9exportTEXE7QString    @94
    _ZN7QMathGL9exportTGAE7QString    @95
    _ZN7QMathGL9exportXYZE7QString    @96
    _ZN7QMathGL9nextSlideEv    @97
    _ZN7QMathGL9prevSlideEv    @98
    _ZN7QMathGL9refreshHQEv    @99
    _ZN7QMathGL9setRotateEb    @100
    _ZN7QMathGL9setViewYZEb    @101
    _ZN7QMathGL9shiftDownEv    @102
    _ZN7QMathGL9shiftLeftEv    @103
    _ZN7QMathGLC1EP7QWidget6QFlagsIN2Qt10WindowTypeEE    @104
    _ZN7QMathGLC2EP7QWidget6QFlagsIN2Qt10WindowTypeEE    @105
    _ZN7QMathGLD0Ev    @106
    _ZN7QMathGLD1Ev    @107
    _ZN7QMathGLD2Ev    @108
    _ZNK7QMathGL10metaObjectEv    @109
    _ZTI12mglCanvasWnd    @110
    _ZTI13mglDrawScript    @111
    _ZTI5mglQT    @112
    _ZTI6mglWnd    @113
    _ZTI7QMathGL    @114
    _ZTI7mglBase    @115
    _ZTI7mglData    @116
    _ZTI7mglDraw    @117
    _ZTI8mglDataA    @118
    _ZTI8mglDataC    @119
    _ZTI8mglDataF    @120
    _ZTI8mglDataR    @121
    _ZTI8mglDataS    @122
    _ZTI8mglDataT    @123
    _ZTI8mglDataV    @124
    _ZTI8mglDataW    @125
    _ZTI8mglGraph    @126
    _ZTI8mglParse    @127
    _ZTI9mglCanvas    @128
    _ZTV13mglDrawScript    @129
    _ZTV5mglQT    @130
    _ZTV6mglWnd    @131
    _ZTV7QMathGL    @132
    _ZTV7mglData    @133
    _ZTV7mglDraw    @134
    _ZTV8mglDataA    @135
    _ZTV8mglDataC    @136
    _ZTV8mglDataF    @137
    _ZTV8mglDataR    @138
    _ZTV8mglDataS    @139
    _ZTV8mglDataT    @140
    _ZTV8mglDataV    @141
    _ZTV8mglDataW    @142
    _ZTV8mglGraph    @143
    _ZTV8mglParse    @144
    _ZThn16_N7QMathGLD0Ev    @145
    _ZThn16_N7QMathGLD1Ev    @146
    mgl_create_graph_qt    @147
    mgl_create_graph_qt_    @148
    mgl_qt_run    @149
    mgl_qt_run_    @150
    mgl_qt_widget    @151
