LIBRARY libmgl-wx.dll
EXPORTS
    _Z16ConvertFromGraphP7mglBase    @1
    _ZN8wxMathGL10ExportPNGsE8wxString    @2
    _ZN8wxMathGL10ShiftRightEv    @3
    _ZN8wxMathGL11OnMouseDownER12wxMouseEvent    @4
    _ZN8wxMathGL11OnMouseMoveER12wxMouseEvent    @5
    _ZN8wxMathGL11OnNextSlideER12wxTimerEvent    @6
    _ZN8wxMathGL13OnMouseLeftUpER12wxMouseEvent    @7
    _ZN8wxMathGL13sm_eventTableE    @8
    _ZN8wxMathGL14OnMouseRightUpER12wxMouseEvent    @9
    _ZN8wxMathGL15OnMouseLeftDownER12wxMouseEvent    @10
    _ZN8wxMathGL17sm_eventHashTableE    @11
    _ZN8wxMathGL20sm_eventTableEntriesE    @12
    _ZN8wxMathGL4CopyEv    @13
    _ZN8wxMathGL5AboutEv    @14
    _ZN8wxMathGL6AdjustEv    @15
    _ZN8wxMathGL6OnSizeER11wxSizeEvent    @16
    _ZN8wxMathGL6SetPerEi    @17
    _ZN8wxMathGL6SetPhiEi    @18
    _ZN8wxMathGL6SetTetEi    @19
    _ZN8wxMathGL6UpdateEv    @20
    _ZN8wxMathGL6ZoomInEv    @21
    _ZN8wxMathGL7OnPaintER12wxPaintEvent    @22
    _ZN8wxMathGL7RepaintEv    @23
    _ZN8wxMathGL7RestoreEv    @24
    _ZN8wxMathGL7SetSizeEii    @25
    _ZN8wxMathGL7SetZoomEb    @26
    _ZN8wxMathGL7ShiftUpEv    @27
    _ZN8wxMathGL7ZoomOutEv    @28
    _ZN8wxMathGL8GetRatioEv    @29
    _ZN8wxMathGL8SetAlphaEb    @30
    _ZN8wxMathGL8SetGraphEP7mglBase    @31
    _ZN8wxMathGL8SetLightEb    @32
    _ZN8wxMathGL9AnimationEb    @33
    _ZN8wxMathGL9ExportBPSE8wxString    @34
    _ZN8wxMathGL9ExportEPSE8wxString    @35
    _ZN8wxMathGL9ExportJPGE8wxString    @36
    _ZN8wxMathGL9ExportPNGE8wxString    @37
    _ZN8wxMathGL9ExportSVGE8wxString    @38
    _ZN8wxMathGL9NextSlideEv    @39
    _ZN8wxMathGL9PrevSlideEv    @40
    _ZN8wxMathGL9SetRotateEb    @41
    _ZN8wxMathGL9ShiftDownEv    @42
    _ZN8wxMathGL9ShiftLeftEv    @43
    _ZN8wxMathGLC1EP8wxWindowiRK7wxPointRK6wxSizelRK8wxString    @44
    _ZN8wxMathGLC2EP8wxWindowiRK7wxPointRK6wxSizelRK8wxString    @45
    _ZN8wxMathGLD0Ev    @46
    _ZN8wxMathGLD1Ev    @47
    _ZN8wxMathGLD2Ev    @48
    _ZNK8wxMathGL13GetEventTableEv    @49
    _ZNK8wxMathGL17GetEventHashTableEv    @50
    _ZTI11mglCanvasWX    @51
    _ZTI12mglCanvasWnd    @52
    _ZTI6mglWnd    @53
    _ZTI7mglBase    @54
    _ZTI7mglData    @55
    _ZTI7mglDraw    @56
    _ZTI8mglDataA    @57
    _ZTI8mglDataC    @58
    _ZTI8mglDataF    @59
    _ZTI8mglDataR    @60
    _ZTI8mglDataS    @61
    _ZTI8mglDataT    @62
    _ZTI8mglDataV    @63
    _ZTI8mglDataW    @64
    _ZTI8mglGraph    @65
    _ZTI8mglParse    @66
    _ZTI8wxMathGL    @67
    _ZTI9mglCanvas    @68
    _ZTV6mglWnd    @69
    _ZTV7mglData    @70
    _ZTV7mglDraw    @71
    _ZTV8mglDataA    @72
    _ZTV8mglDataC    @73
    _ZTV8mglDataF    @74
    _ZTV8mglDataR    @75
    _ZTV8mglDataS    @76
    _ZTV8mglDataT    @77
    _ZTV8mglDataV    @78
    _ZTV8mglDataW    @79
    _ZTV8mglGraph    @80
    _ZTV8mglParse    @81
    _ZTV8wxMathGL    @82
